target datalayout = "e-m:e-p270:32:32-p271:32:32-p272:64:64-i64:64-i128:128-f80:128-n8:16:32:64-S128"
target triple = "x86_64-pc-linux-gnu"

; Function Attrs: nounwind uwtable
define ptr @cl_hash_data(ptr noundef %0, ptr noundef %1, i64 noundef %2, ptr noundef %3, ptr noundef %4) #0 {
  %6 = alloca ptr, align 8
  %7 = alloca ptr, align 8
  %8 = alloca ptr, align 8
  %9 = alloca i64, align 8
  %10 = alloca ptr, align 8
  %11 = alloca ptr, align 8
  %12 = alloca ptr, align 8
  %13 = alloca ptr, align 8
  %14 = alloca i64, align 8
  %15 = alloca ptr, align 8
  %16 = alloca i32, align 4
  %17 = alloca i64, align 8
  %18 = alloca i32, align 4
  %19 = alloca i32, align 4
  %20 = alloca i64, align 8
  store ptr %0, ptr %7, align 8, !tbaa !3
  store ptr %1, ptr %8, align 8, !tbaa !8
  store i64 %2, ptr %9, align 8, !tbaa !9
  store ptr %3, ptr %10, align 8, !tbaa !3
  store ptr %4, ptr %11, align 8, !tbaa !11
  call void @llvm.lifetime.start.p0(i64 8, ptr %12) #8
  call void @llvm.lifetime.start.p0(i64 8, ptr %13) #8
  call void @llvm.lifetime.start.p0(i64 8, ptr %14) #8
  call void @llvm.lifetime.start.p0(i64 8, ptr %15) #8
  call void @llvm.lifetime.start.p0(i64 4, ptr %16) #8
  call void @llvm.lifetime.start.p0(i64 8, ptr %17) #8
  call void @llvm.lifetime.start.p0(i64 4, ptr %18) #8
  store i32 0, ptr %18, align 4, !tbaa !13
  %21 = load ptr, ptr %7, align 8, !tbaa !3
  %22 = call ptr @EVP_get_digestbyname(ptr noundef %21)
  store ptr %22, ptr %15, align 8, !tbaa !15
  %23 = load ptr, ptr %15, align 8, !tbaa !15
  %24 = icmp ne ptr %23, null
  br i1 %24, label %26, label %25

25:                                               ; preds = %5
  store ptr null, ptr %6, align 8
  store i32 1, ptr %19, align 4
  br label %160

26:                                               ; preds = %5
  %27 = load ptr, ptr %15, align 8, !tbaa !15
  %28 = call i32 @EVP_MD_get_size(ptr noundef %27)
  %29 = sext i32 %28 to i64
  store i64 %29, ptr %14, align 8, !tbaa !9
  %30 = load ptr, ptr %10, align 8, !tbaa !3
  %31 = icmp ne ptr %30, null
  br i1 %31, label %32, label %34

32:                                               ; preds = %26
  %33 = load ptr, ptr %10, align 8, !tbaa !3
  br label %37

34:                                               ; preds = %26
  %35 = load i64, ptr %14, align 8, !tbaa !9
  %36 = call noalias ptr @malloc(i64 noundef %35) #9
  br label %37

37:                                               ; preds = %34, %32
  %38 = phi ptr [ %33, %32 ], [ %36, %34 ]
  store ptr %38, ptr %13, align 8, !tbaa !3
  %39 = load ptr, ptr %13, align 8, !tbaa !3
  %40 = icmp ne ptr %39, null
  br i1 %40, label %42, label %41

41:                                               ; preds = %37
  store ptr null, ptr %6, align 8
  store i32 1, ptr %19, align 4
  br label %160

42:                                               ; preds = %37
  %43 = call ptr @EVP_MD_CTX_new()
  store ptr %43, ptr %12, align 8, !tbaa !17
  %44 = load ptr, ptr %12, align 8, !tbaa !17
  %45 = icmp ne ptr %44, null
  br i1 %45, label %52, label %46

46:                                               ; preds = %42
  %47 = load ptr, ptr %10, align 8, !tbaa !3
  %48 = icmp ne ptr %47, null
  br i1 %48, label %51, label %49

49:                                               ; preds = %46
  %50 = load ptr, ptr %13, align 8, !tbaa !3
  call void @free(ptr noundef %50) #8
  br label %51

51:                                               ; preds = %49, %46
  store ptr null, ptr %6, align 8
  store i32 1, ptr %19, align 4
  br label %160

52:                                               ; preds = %42
  %53 = load ptr, ptr %12, align 8, !tbaa !17
  call void @EVP_MD_CTX_set_flags(ptr noundef %53, i32 noundef 8)
  %54 = load ptr, ptr %12, align 8, !tbaa !17
  %55 = load ptr, ptr %15, align 8, !tbaa !15
  %56 = call i32 @EVP_DigestInit_ex(ptr noundef %54, ptr noundef %55, ptr noundef null)
  %57 = icmp ne i32 %56, 0
  br i1 %57, label %70, label %58

58:                                               ; preds = %52
  %59 = load ptr, ptr %10, align 8, !tbaa !3
  %60 = icmp ne ptr %59, null
  br i1 %60, label %63, label %61

61:                                               ; preds = %58
  %62 = load ptr, ptr %13, align 8, !tbaa !3
  call void @free(ptr noundef %62) #8
  br label %63

63:                                               ; preds = %61, %58
  %64 = load ptr, ptr %11, align 8, !tbaa !11
  %65 = icmp ne ptr %64, null
  br i1 %65, label %66, label %68

66:                                               ; preds = %63
  %67 = load ptr, ptr %11, align 8, !tbaa !11
  store i32 0, ptr %67, align 4, !tbaa !13
  br label %68

68:                                               ; preds = %66, %63
  %69 = load ptr, ptr %12, align 8, !tbaa !17
  call void @EVP_MD_CTX_free(ptr noundef %69)
  store ptr null, ptr %6, align 8
  store i32 1, ptr %19, align 4
  br label %160

70:                                               ; preds = %52
  store i64 0, ptr %17, align 8, !tbaa !9
  br label %71

71:                                               ; preds = %133, %70
  %72 = load i64, ptr %17, align 8, !tbaa !9
  %73 = load i64, ptr %9, align 8, !tbaa !9
  %74 = icmp ult i64 %72, %73
  br i1 %74, label %75, label %134

75:                                               ; preds = %71
  call void @llvm.lifetime.start.p0(i64 8, ptr %20) #8
  %76 = load ptr, ptr %15, align 8, !tbaa !15
  %77 = call i32 @EVP_MD_get_block_size(ptr noundef %76)
  %78 = sext i32 %77 to i64
  %79 = load i64, ptr %9, align 8, !tbaa !9
  %80 = load i64, ptr %17, align 8, !tbaa !9
  %81 = sub i64 %79, %80
  %82 = icmp ult i64 %78, %81
  br i1 %82, label %83, label %87

83:                                               ; preds = %75
  %84 = load ptr, ptr %15, align 8, !tbaa !15
  %85 = call i32 @EVP_MD_get_block_size(ptr noundef %84)
  %86 = sext i32 %85 to i64
  br label %91

87:                                               ; preds = %75
  %88 = load i64, ptr %9, align 8, !tbaa !9
  %89 = load i64, ptr %17, align 8, !tbaa !9
  %90 = sub i64 %88, %89
  br label %91

91:                                               ; preds = %87, %83
  %92 = phi i64 [ %86, %83 ], [ %90, %87 ]
  store i64 %92, ptr %20, align 8, !tbaa !9
  %93 = load ptr, ptr %12, align 8, !tbaa !17
  %94 = load ptr, ptr %8, align 8, !tbaa !8
  %95 = load i64, ptr %17, align 8, !tbaa !9
  %96 = getelementptr inbounds nuw i8, ptr %94, i64 %95
  %97 = load i64, ptr %20, align 8, !tbaa !9
  %98 = call i32 @EVP_DigestUpdate(ptr noundef %93, ptr noundef %96, i64 noundef %97)
  %99 = icmp ne i32 %98, 0
  br i1 %99, label %112, label %100

100:                                              ; preds = %91
  %101 = load ptr, ptr %10, align 8, !tbaa !3
  %102 = icmp ne ptr %101, null
  br i1 %102, label %105, label %103

103:                                              ; preds = %100
  %104 = load ptr, ptr %13, align 8, !tbaa !3
  call void @free(ptr noundef %104) #8
  br label %105

105:                                              ; preds = %103, %100
  %106 = load ptr, ptr %11, align 8, !tbaa !11
  %107 = icmp ne ptr %106, null
  br i1 %107, label %108, label %110

108:                                              ; preds = %105
  %109 = load ptr, ptr %11, align 8, !tbaa !11
  store i32 0, ptr %109, align 4, !tbaa !13
  br label %110

110:                                              ; preds = %108, %105
  %111 = load ptr, ptr %12, align 8, !tbaa !17
  call void @EVP_MD_CTX_free(ptr noundef %111)
  store ptr null, ptr %6, align 8
  store i32 1, ptr %19, align 4
  br label %131

112:                                              ; preds = %91
  %113 = load i32, ptr %18, align 4, !tbaa !13
  %114 = icmp ne i32 %113, 0
  br i1 %114, label %115, label %127

115:                                              ; preds = %112
  %116 = load ptr, ptr %10, align 8, !tbaa !3
  %117 = icmp ne ptr %116, null
  br i1 %117, label %120, label %118

118:                                              ; preds = %115
  %119 = load ptr, ptr %13, align 8, !tbaa !3
  call void @free(ptr noundef %119) #8
  br label %120

120:                                              ; preds = %118, %115
  %121 = load ptr, ptr %11, align 8, !tbaa !11
  %122 = icmp ne ptr %121, null
  br i1 %122, label %123, label %125

123:                                              ; preds = %120
  %124 = load ptr, ptr %11, align 8, !tbaa !11
  store i32 0, ptr %124, align 4, !tbaa !13
  br label %125

125:                                              ; preds = %123, %120
  %126 = load ptr, ptr %12, align 8, !tbaa !17
  call void @EVP_MD_CTX_free(ptr noundef %126)
  store ptr null, ptr %6, align 8
  store i32 1, ptr %19, align 4
  br label %131

127:                                              ; preds = %112
  %128 = load i64, ptr %20, align 8, !tbaa !9
  %129 = load i64, ptr %17, align 8, !tbaa !9
  %130 = add i64 %129, %128
  store i64 %130, ptr %17, align 8, !tbaa !9
  store i32 0, ptr %19, align 4
  br label %131

131:                                              ; preds = %127, %125, %110
  call void @llvm.lifetime.end.p0(i64 8, ptr %20) #8
  %132 = load i32, ptr %19, align 4
  switch i32 %132, label %160 [
    i32 0, label %133
  ]

133:                                              ; preds = %131
  br label %71

134:                                              ; preds = %71
  %135 = load ptr, ptr %12, align 8, !tbaa !17
  %136 = load ptr, ptr %13, align 8, !tbaa !3
  %137 = call i32 @EVP_DigestFinal_ex(ptr noundef %135, ptr noundef %136, ptr noundef %16)
  %138 = icmp ne i32 %137, 0
  br i1 %138, label %151, label %139

139:                                              ; preds = %134
  %140 = load ptr, ptr %10, align 8, !tbaa !3
  %141 = icmp ne ptr %140, null
  br i1 %141, label %144, label %142

142:                                              ; preds = %139
  %143 = load ptr, ptr %13, align 8, !tbaa !3
  call void @free(ptr noundef %143) #8
  br label %144

144:                                              ; preds = %142, %139
  %145 = load ptr, ptr %11, align 8, !tbaa !11
  %146 = icmp ne ptr %145, null
  br i1 %146, label %147, label %149

147:                                              ; preds = %144
  %148 = load ptr, ptr %11, align 8, !tbaa !11
  store i32 0, ptr %148, align 4, !tbaa !13
  br label %149

149:                                              ; preds = %147, %144
  %150 = load ptr, ptr %12, align 8, !tbaa !17
  call void @EVP_MD_CTX_free(ptr noundef %150)
  store ptr null, ptr %6, align 8
  store i32 1, ptr %19, align 4
  br label %160

151:                                              ; preds = %134
  %152 = load ptr, ptr %12, align 8, !tbaa !17
  call void @EVP_MD_CTX_free(ptr noundef %152)
  %153 = load ptr, ptr %11, align 8, !tbaa !11
  %154 = icmp ne ptr %153, null
  br i1 %154, label %155, label %158

155:                                              ; preds = %151
  %156 = load i32, ptr %16, align 4, !tbaa !13
  %157 = load ptr, ptr %11, align 8, !tbaa !11
  store i32 %156, ptr %157, align 4, !tbaa !13
  br label %158

158:                                              ; preds = %155, %151
  %159 = load ptr, ptr %13, align 8, !tbaa !3
  store ptr %159, ptr %6, align 8
  store i32 1, ptr %19, align 4
  br label %160

160:                                              ; preds = %158, %149, %131, %68, %51, %41, %25
  call void @llvm.lifetime.end.p0(i64 4, ptr %18) #8
  call void @llvm.lifetime.end.p0(i64 8, ptr %17) #8
  call void @llvm.lifetime.end.p0(i64 4, ptr %16) #8
  call void @llvm.lifetime.end.p0(i64 8, ptr %15) #8
  call void @llvm.lifetime.end.p0(i64 8, ptr %14) #8
  call void @llvm.lifetime.end.p0(i64 8, ptr %13) #8
  call void @llvm.lifetime.end.p0(i64 8, ptr %12) #8
  %161 = load ptr, ptr %6, align 8
  ret ptr %161
}