; Function Attrs: nounwind uwtable
define noundef ptr @cl_hash_data(ptr noundef %0, ptr noundef %1, i64 noundef %2, ptr noundef %3, ptr noundef writeonly %4) local_unnamed_addr #1 {
  %6 = alloca i32, align 4
  call void @llvm.lifetime.start.p0(i64 4, ptr nonnull %6) #12
  %7 = tail call ptr @EVP_get_digestbyname(ptr noundef %0) #12
  %.not = icmp eq ptr %7, null
  br i1 %.not, label %.thread80, label %8

8:                                                ; preds = %5
  %9 = tail call i32 @EVP_MD_get_size(ptr noundef nonnull %7) #12
  %.not67 = icmp eq ptr %3, null
  br i1 %.not67, label %10, label %.thread78

10:                                               ; preds = %8
  %11 = sext i32 %9 to i64
  %12 = tail call noalias ptr @malloc(i64 noundef %11) #13
  %.not68 = icmp eq ptr %12, null
  br i1 %.not68, label %.thread80, label %13

13:                                               ; preds = %10
  %14 = tail call ptr @EVP_MD_CTX_new() #12
  %.not69 = icmp eq ptr %14, null
  br i1 %.not69, label %16, label %17

.thread78:                                        ; preds = %8
  %15 = tail call ptr @EVP_MD_CTX_new() #12
  %.not6979 = icmp eq ptr %15, null
  br i1 %.not6979, label %.thread80, label %17

16:                                               ; preds = %13
  tail call void @free(ptr noundef nonnull %12) #12
  br label %.thread80

17:                                               ; preds = %.thread78, %13
  %18 = phi ptr [ %15, %.thread78 ], [ %14, %13 ]
  %19 = phi ptr [ %3, %.thread78 ], [ %12, %13 ]
  tail call void @EVP_MD_CTX_set_flags(ptr noundef nonnull %18, i32 noundef 8) #12
  %20 = tail call i32 @EVP_DigestInit_ex(ptr noundef nonnull %18, ptr noundef nonnull %7, ptr noundef null) #12
  %.not70 = icmp eq i32 %20, 0
  br i1 %.not70, label %21, label %.preheader

.preheader:                                       ; preds = %17
  %.not84 = icmp eq i64 %2, 0
  br i1 %.not84, label %._crit_edge, label %.lr.ph

21:                                               ; preds = %17
  br i1 %.not67, label %22, label %23

22:                                               ; preds = %21
  tail call void @free(ptr noundef nonnull %19) #12
  br label %23

23:                                               ; preds = %22, %21
  %.not71 = icmp eq ptr %4, null
  br i1 %.not71, label %25, label %24

24:                                               ; preds = %23
  store i32 0, ptr %4, align 4, !tbaa !3
  br label %25

25:                                               ; preds = %24, %23
  tail call void @EVP_MD_CTX_free(ptr noundef nonnull %18) #12
  br label %.thread80

26:                                               ; preds = %36
  %27 = add i64 %37, %.05683
  %28 = icmp ult i64 %27, %2
  br i1 %28, label %.lr.ph, label %._crit_edge

.lr.ph:                                           ; preds = %.preheader, %26
  %.05683 = phi i64 [ %27, %26 ], [ 0, %.preheader ]
  %29 = tail call i32 @EVP_MD_get_block_size(ptr noundef nonnull %7) #12
  %30 = sext i32 %29 to i64
  %31 = sub nuw i64 %2, %.05683
  %32 = icmp ugt i64 %31, %30
  br i1 %32, label %33, label %36

33:                                               ; preds = %.lr.ph
  %34 = tail call i32 @EVP_MD_get_block_size(ptr noundef nonnull %7) #12
  %35 = sext i32 %34 to i64
  br label %36

36:                                               ; preds = %.lr.ph, %33
  %37 = phi i64 [ %35, %33 ], [ %31, %.lr.ph ]
  %38 = getelementptr inbounds nuw i8, ptr %1, i64 %.05683
  %39 = tail call i32 @EVP_DigestUpdate(ptr noundef nonnull %18, ptr noundef %38, i64 noundef %37) #12
  %.not75.not = icmp eq i32 %39, 0
  br i1 %.not75.not, label %40, label %26

40:                                               ; preds = %36
  br i1 %.not67, label %41, label %42

41:                                               ; preds = %40
  tail call void @free(ptr noundef %19) #12
  br label %42

42:                                               ; preds = %41, %40
  %.not76 = icmp eq ptr %4, null
  br i1 %.not76, label %.thread81, label %43

43:                                               ; preds = %42
  store i32 0, ptr %4, align 4, !tbaa !3
  br label %.thread81

.thread81:                                        ; preds = %42, %43
  tail call void @EVP_MD_CTX_free(ptr noundef nonnull %18) #12
  br label %.thread80

._crit_edge:                                      ; preds = %26, %.preheader
  %44 = call i32 @EVP_DigestFinal_ex(ptr noundef nonnull %18, ptr noundef nonnull %19, ptr noundef nonnull %6) #12
  %.not72 = icmp eq i32 %44, 0
  br i1 %.not72, label %45, label %50

45:                                               ; preds = %._crit_edge
  br i1 %.not67, label %46, label %47

46:                                               ; preds = %45
  call void @free(ptr noundef nonnull %19) #12
  br label %47

47:                                               ; preds = %46, %45
  %.not73 = icmp eq ptr %4, null
  br i1 %.not73, label %49, label %48

48:                                               ; preds = %47
  store i32 0, ptr %4, align 4, !tbaa !3
  br label %49

49:                                               ; preds = %48, %47
  call void @EVP_MD_CTX_free(ptr noundef nonnull %18) #12
  br label %.thread80

50:                                               ; preds = %._crit_edge
  call void @EVP_MD_CTX_free(ptr noundef nonnull %18) #12
  %.not74 = icmp eq ptr %4, null
  br i1 %.not74, label %.thread80, label %51

51:                                               ; preds = %50
  %52 = load i32, ptr %6, align 4, !tbaa !3
  store i32 %52, ptr %4, align 4, !tbaa !3
  br label %.thread80

.thread80:                                        ; preds = %.thread78, %.thread81, %50, %51, %16, %10, %5, %49, %25
  %.0 = phi ptr [ null, %49 ], [ null, %25 ], [ null, %5 ], [ null, %10 ], [ null, %16 ], [ %19, %51 ], [ %19, %50 ], [ null, %.thread81 ], [ null, %.thread78 ]
  call void @llvm.lifetime.end.p0(i64 4, ptr nonnull %6) #12
  ret ptr %.0
}